(dp0
S'show_imports'
p1
I0
sS'prj_name'
p2
S'ffnet'
p3
sS'docformat'
p4
S'epytext'
p5
sS'inheritance'
p6
S'grouped'
p7
sS'help'
p8
NsS'modules'
p9
(S'ffnet.py'
p10
S'fortran/_ffnet.so'
p11
S'pikaia.py'
p12
S'fortran/_pikaia.so'
p13
S'_version.py'
p14
S'tools/_py2f.py'
p15
S'tools/drawffnet.py'
p16
tp17
sS'private'
p18
I1
sS'prj_url'
p19
S'http://ffnet.sourceforge.net'
p20
sS'introspect_or_parse'
p21
S'both'
p22
sS'frames'
p23
I1
sS'css'
p24
S'default'
p25
sS'target'
p26
S'doc'
p27
s.